target datalayout = "e-m:e-p270:32:32-p271:32:32-p272:64:64-i64:64-i128:128-f80:128-n8:16:32:64-S128"
target triple = "x86_64-pc-linux-gnu"

@.str.75 = private unnamed_addr constant [46 x i8] c"%d-byte integer does not fit into Lua Integer\00", align 1

; Function Attrs: nounwind uwtable
define internal i64 @unpackint(ptr noundef %0, ptr noundef %1, i32 noundef %2, i32 noundef %3, i32 noundef %4) #0 {
  %6 = alloca ptr, align 8
  %7 = alloca ptr, align 8
  %8 = alloca i32, align 4
  %9 = alloca i32, align 4
  %10 = alloca i32, align 4
  %11 = alloca i64, align 8
  %12 = alloca i32, align 4
  %13 = alloca i32, align 4
  %14 = alloca i64, align 8
  %15 = alloca i32, align 4
  store ptr %0, ptr %6, align 8, !tbaa !4
  store ptr %1, ptr %7, align 8, !tbaa !9
  store i32 %2, ptr %8, align 4, !tbaa !15
  store i32 %3, ptr %9, align 4, !tbaa !15
  store i32 %4, ptr %10, align 4, !tbaa !15
  call void @llvm.lifetime.start.p0(i64 8, ptr %11) #11
  store i64 0, ptr %11, align 8, !tbaa !11
  call void @llvm.lifetime.start.p0(i64 4, ptr %12) #11
  call void @llvm.lifetime.start.p0(i64 4, ptr %13) #11
  %16 = load i32, ptr %9, align 4, !tbaa !15
  %17 = icmp sle i32 %16, 8
  br i1 %17, label %18, label %20

18:                                               ; preds = %5
  %19 = load i32, ptr %9, align 4, !tbaa !15
  br label %21

20:                                               ; preds = %5
  br label %21

21:                                               ; preds = %20, %18
  %22 = phi i32 [ %19, %18 ], [ 8, %20 ]
  store i32 %22, ptr %13, align 4, !tbaa !15
  %23 = load i32, ptr %13, align 4, !tbaa !15
  %24 = sub nsw i32 %23, 1
  store i32 %24, ptr %12, align 4, !tbaa !15
  br label %25

25:                                               ; preds = %49, %21
  %26 = load i32, ptr %12, align 4, !tbaa !15
  %27 = icmp sge i32 %26, 0
  br i1 %27, label %28, label %52

28:                                               ; preds = %25
  %29 = load i64, ptr %11, align 8, !tbaa !11
  %30 = shl i64 %29, 8
  store i64 %30, ptr %11, align 8, !tbaa !11
  %31 = load ptr, ptr %7, align 8, !tbaa !9
  %32 = load i32, ptr %8, align 4, !tbaa !15
  %33 = icmp ne i32 %32, 0
  br i1 %33, label %34, label %36

34:                                               ; preds = %28
  %35 = load i32, ptr %12, align 4, !tbaa !15
  br label %41

36:                                               ; preds = %28
  %37 = load i32, ptr %9, align 4, !tbaa !15
  %38 = sub nsw i32 %37, 1
  %39 = load i32, ptr %12, align 4, !tbaa !15
  %40 = sub nsw i32 %38, %39
  br label %41

41:                                               ; preds = %36, %34
  %42 = phi i32 [ %35, %34 ], [ %40, %36 ]
  %43 = sext i32 %42 to i64
  %44 = getelementptr inbounds i8, ptr %31, i64 %43
  %45 = load i8, ptr %44, align 1, !tbaa !17
  %46 = zext i8 %45 to i64
  %47 = load i64, ptr %11, align 8, !tbaa !11
  %48 = or i64 %47, %46
  store i64 %48, ptr %11, align 8, !tbaa !11
  br label %49

49:                                               ; preds = %41
  %50 = load i32, ptr %12, align 4, !tbaa !15
  %51 = add nsw i32 %50, -1
  store i32 %51, ptr %12, align 4, !tbaa !15
  br label %25

52:                                               ; preds = %25
  %53 = load i32, ptr %9, align 4, !tbaa !15
  %54 = icmp slt i32 %53, 8
  br i1 %54, label %55, label %70

55:                                               ; preds = %52
  %56 = load i32, ptr %10, align 4, !tbaa !15
  %57 = icmp ne i32 %56, 0
  br i1 %57, label %58, label %69

58:                                               ; preds = %55
  call void @llvm.lifetime.start.p0(i64 8, ptr %14) #11
  %59 = load i32, ptr %9, align 4, !tbaa !15
  %60 = mul nsw i32 %59, 8
  %61 = sub nsw i32 %60, 1
  %62 = zext i32 %61 to i64
  %63 = shl i64 1, %62
  store i64 %63, ptr %14, align 8, !tbaa !11
  %64 = load i64, ptr %11, align 8, !tbaa !11
  %65 = load i64, ptr %14, align 8, !tbaa !11
  %66 = xor i64 %64, %65
  %67 = load i64, ptr %14, align 8, !tbaa !11
  %68 = sub i64 %66, %67
  store i64 %68, ptr %11, align 8, !tbaa !11
  call void @llvm.lifetime.end.p0(i64 8, ptr %14) #11
  br label %69

69:                                               ; preds = %58, %55
  br label %122

70:                                               ; preds = %52
  %71 = load i32, ptr %9, align 4, !tbaa !15
  %72 = icmp sgt i32 %71, 8
  br i1 %72, label %73, label %121

73:                                               ; preds = %70
  call void @llvm.lifetime.start.p0(i64 4, ptr %15) #11
  %74 = load i32, ptr %10, align 4, !tbaa !15
  %75 = icmp ne i32 %74, 0
  br i1 %75, label %76, label %79

76:                                               ; preds = %73
  %77 = load i64, ptr %11, align 8, !tbaa !11
  %78 = icmp sge i64 %77, 0
  br label %79

79:                                               ; preds = %76, %73
  %80 = phi i1 [ true, %73 ], [ %78, %76 ]
  %81 = select i1 %80, i32 0, i32 255
  store i32 %81, ptr %15, align 4, !tbaa !15
  %82 = load i32, ptr %13, align 4, !tbaa !15
  store i32 %82, ptr %12, align 4, !tbaa !15
  br label %83

83:                                               ; preds = %117, %79
  %84 = load i32, ptr %12, align 4, !tbaa !15
  %85 = load i32, ptr %9, align 4, !tbaa !15
  %86 = icmp slt i32 %84, %85
  br i1 %86, label %87, label %120

87:                                               ; preds = %83
  %88 = load ptr, ptr %7, align 8, !tbaa !9
  %89 = load i32, ptr %8, align 4, !tbaa !15
  %90 = icmp ne i32 %89, 0
  br i1 %90, label %91, label %93

91:                                               ; preds = %87
  %92 = load i32, ptr %12, align 4, !tbaa !15
  br label %98

93:                                               ; preds = %87
  %94 = load i32, ptr %9, align 4, !tbaa !15
  %95 = sub nsw i32 %94, 1
  %96 = load i32, ptr %12, align 4, !tbaa !15
  %97 = sub nsw i32 %95, %96
  br label %98

98:                                               ; preds = %93, %91
  %99 = phi i32 [ %92, %91 ], [ %97, %93 ]
  %100 = sext i32 %99 to i64
  %101 = getelementptr inbounds i8, ptr %88, i64 %100
  %102 = load i8, ptr %101, align 1, !tbaa !17
  %103 = zext i8 %102 to i32
  %104 = load i32, ptr %15, align 4, !tbaa !15
  %105 = icmp ne i32 %103, %104
  %106 = zext i1 %105 to i32
  %107 = icmp ne i32 %106, 0
  %108 = zext i1 %107 to i32
  %109 = sext i32 %108 to i64
  %110 = call i64 @llvm.expect.i64(i64 %109, i64 0)
  %111 = icmp ne i64 %110, 0
  br i1 %111, label %112, label %116

112:                                              ; preds = %98
  %113 = load ptr, ptr %6, align 8, !tbaa !4
  %114 = load i32, ptr %9, align 4, !tbaa !15
  %115 = call i32 (ptr, ptr, ...) @luaL_error(ptr noundef %113, ptr noundef @.str.75, i32 noundef %114)
  br label %116

116:                                              ; preds = %112, %98
  br label %117

117:                                              ; preds = %116
  %118 = load i32, ptr %12, align 4, !tbaa !15
  %119 = add nsw i32 %118, 1
  store i32 %119, ptr %12, align 4, !tbaa !15
  br label %83

120:                                              ; preds = %83
  call void @llvm.lifetime.end.p0(i64 4, ptr %15) #11
  br label %121

121:                                              ; preds = %120, %70
  br label %122

122:                                              ; preds = %121, %69
  %123 = load i64, ptr %11, align 8, !tbaa !11
  call void @llvm.lifetime.end.p0(i64 4, ptr %13) #11
  call void @llvm.lifetime.end.p0(i64 4, ptr %12) #11
  call void @llvm.lifetime.end.p0(i64 8, ptr %11) #11
  ret i64 %123
}