; Function Attrs: nounwind uwtable
define internal fastcc i64 @unpackint(ptr noundef %0, ptr noundef readonly captures(none) %1, i32 noundef %2, i32 noundef %3, i32 noundef range(i32 0, 2) %4) unnamed_addr #0 {
  %6 = tail call i32 @llvm.smin.i32(i32 %3, i32 8)
  %7 = icmp sgt i32 %3, 0
  br i1 %7, label %.lr.ph, label %._crit_edge.thread

.lr.ph:                                           ; preds = %5
  %.not41 = icmp eq i32 %2, 0
  %8 = tail call i32 @llvm.umin.i32(i32 %3, i32 8)
  %9 = zext nneg i32 %8 to i64
  br i1 %.not41, label %.lr.ph.split.us, label %.lr.ph.split

.lr.ph.split.us:                                  ; preds = %.lr.ph, %.lr.ph.split.us
  %indvars.iv51 = phi i64 [ %indvars.iv.next52, %.lr.ph.split.us ], [ %9, %.lr.ph ]
  %.043.us = phi i64 [ %17, %.lr.ph.split.us ], [ 0, %.lr.ph ]
  %indvars.iv.next52 = add nsw i64 %indvars.iv51, -1
  %10 = shl i64 %.043.us, 8
  %11 = trunc nsw i64 %indvars.iv51 to i32
  %12 = sub i32 %3, %11
  %13 = sext i32 %12 to i64
  %14 = getelementptr inbounds i8, ptr %1, i64 %13
  %15 = load i8, ptr %14, align 1, !tbaa !9
  %16 = zext i8 %15 to i64
  %17 = or disjoint i64 %10, %16
  %18 = icmp samesign ugt i64 %indvars.iv51, 1
  br i1 %18, label %.lr.ph.split.us, label %._crit_edge

.lr.ph.split:                                     ; preds = %.lr.ph, %.lr.ph.split
  %indvars.iv = phi i64 [ %indvars.iv.next, %.lr.ph.split ], [ %9, %.lr.ph ]
  %.043 = phi i64 [ %23, %.lr.ph.split ], [ 0, %.lr.ph ]
  %indvars.iv.next = add nsw i64 %indvars.iv, -1
  %19 = shl i64 %.043, 8
  %20 = getelementptr inbounds i8, ptr %1, i64 %indvars.iv.next
  %21 = load i8, ptr %20, align 1, !tbaa !9
  %22 = zext i8 %21 to i64
  %23 = or disjoint i64 %19, %22
  %24 = icmp samesign ugt i64 %indvars.iv, 1
  br i1 %24, label %.lr.ph.split, label %._crit_edge

._crit_edge:                                      ; preds = %.lr.ph.split, %.lr.ph.split.us
  %.0.lcssa = phi i64 [ %17, %.lr.ph.split.us ], [ %23, %.lr.ph.split ]
  %25 = icmp slt i32 %3, 8
  br i1 %25, label %._crit_edge.thread, label %33

._crit_edge.thread:                               ; preds = %5, %._crit_edge
  %.0.lcssa60 = phi i64 [ %.0.lcssa, %._crit_edge ], [ 0, %5 ]
  %.not40 = icmp eq i32 %4, 0
  br i1 %.not40, label %.loopexit, label %26

26:                                               ; preds = %._crit_edge.thread
  %27 = shl nsw i32 %3, 3
  %28 = add nsw i32 %27, -1
  %29 = zext nneg i32 %28 to i64
  %30 = shl nuw i64 1, %29
  %31 = xor i64 %.0.lcssa60, %30
  %32 = sub i64 %31, %30
  br label %.loopexit

33:                                               ; preds = %._crit_edge
  %.not = icmp eq i32 %3, 8
  br i1 %.not, label %.loopexit, label %.lr.ph46

.lr.ph46:                                         ; preds = %33
  %.not37 = icmp eq i32 %4, 0
  %34 = icmp sgt i64 %.0.lcssa, -1
  %35 = select i1 %.not37, i1 true, i1 %34
  %36 = select i1 %35, i32 0, i32 255
  %.not38 = icmp eq i32 %2, 0
  br i1 %.not38, label %.lr.ph46.split.us.preheader, label %.lr.ph46.split.preheader

.lr.ph46.split.preheader:                         ; preds = %.lr.ph46
  %37 = zext nneg i32 %6 to i64
  br label %.lr.ph46.split

.lr.ph46.split.us.preheader:                      ; preds = %.lr.ph46
  %38 = zext nneg i32 %3 to i64
  br label %.lr.ph46.split.us

.lr.ph46.split.us:                                ; preds = %.lr.ph46.split.us.preheader, %48
  %indvars.iv57 = phi i64 [ 8, %.lr.ph46.split.us.preheader ], [ %indvars.iv.next58, %48 ]
  %39 = trunc nsw i64 %indvars.iv57 to i32
  %40 = xor i32 %39, -1
  %41 = add nsw i32 %3, %40
  %42 = sext i32 %41 to i64
  %43 = getelementptr inbounds i8, ptr %1, i64 %42
  %44 = load i8, ptr %43, align 1, !tbaa !9
  %45 = zext i8 %44 to i32
  %.not39.us = icmp eq i32 %36, %45
  br i1 %.not39.us, label %48, label %46, !prof !10

46:                                               ; preds = %.lr.ph46.split.us
  %47 = tail call i32 (ptr, ptr, ...) @luaL_error(ptr noundef %0, ptr noundef nonnull @.str.75, i32 noundef %3) #12
  br label %48

48:                                               ; preds = %.lr.ph46.split.us, %46
  %indvars.iv.next58 = add nuw nsw i64 %indvars.iv57, 1
  %49 = icmp samesign ult i64 %indvars.iv.next58, %38
  br i1 %49, label %.lr.ph46.split.us, label %.loopexit

.lr.ph46.split:                                   ; preds = %.lr.ph46.split.preheader, %55
  %indvars.iv53 = phi i64 [ %37, %.lr.ph46.split.preheader ], [ %indvars.iv.next54, %55 ]
  %50 = getelementptr inbounds nuw i8, ptr %1, i64 %indvars.iv53
  %51 = load i8, ptr %50, align 1, !tbaa !9
  %52 = zext i8 %51 to i32
  %.not39 = icmp eq i32 %36, %52
  br i1 %.not39, label %55, label %53, !prof !10

53:                                               ; preds = %.lr.ph46.split
  %54 = tail call i32 (ptr, ptr, ...) @luaL_error(ptr noundef %0, ptr noundef nonnull @.str.75, i32 noundef %3) #12
  br label %55

55:                                               ; preds = %.lr.ph46.split, %53
  %indvars.iv.next54 = add nuw nsw i64 %indvars.iv53, 1
  %56 = trunc nuw i64 %indvars.iv.next54 to i32
  %57 = icmp sgt i32 %3, %56
  br i1 %57, label %.lr.ph46.split, label %.loopexit

.loopexit:                                        ; preds = %55, %48, %33, %._crit_edge.thread, %26
  %.1 = phi i64 [ %32, %26 ], [ %.0.lcssa60, %._crit_edge.thread ], [ %.0.lcssa, %33 ], [ %.0.lcssa, %48 ], [ %.0.lcssa, %55 ]
  ret i64 %.1
}